
target/release/app:     formato de ficheiro elf64-x86-64

Secções:
Idx Name          Tam.      VMA               LMA               File off  Algn
  0 .interp       0000001c  0000000000400318  0000000000400318  00000318  2**0
                  CONTENTS, ALLOC, LOAD, READONLY, DATA
  1 .note.gnu.property 00000030  0000000000400338  0000000000400338  00000338  2**3
                  CONTENTS, ALLOC, LOAD, READONLY, DATA
  2 .note.gnu.build-id 00000024  0000000000400368  0000000000400368  00000368  2**2
                  CONTENTS, ALLOC, LOAD, READONLY, DATA
  3 .note.ABI-tag 00000020  000000000040038c  000000000040038c  0000038c  2**2
                  CONTENTS, ALLOC, LOAD, READONLY, DATA
  4 .gnu.hash     0000001c  00000000004003b0  00000000004003b0  000003b0  2**3
                  CONTENTS, ALLOC, LOAD, READONLY, DATA
  5 .dynsym       00000060  00000000004003d0  00000000004003d0  000003d0  2**3
                  CONTENTS, ALLOC, LOAD, READONLY, DATA
  6 .dynstr       0000006f  0000000000400430  0000000000400430  00000430  2**0
                  CONTENTS, ALLOC, LOAD, READONLY, DATA
  7 .gnu.version  00000008  00000000004004a0  00000000004004a0  000004a0  2**1
                  CONTENTS, ALLOC, LOAD, READONLY, DATA
  8 .gnu.version_r 00000030  00000000004004a8  00000000004004a8  000004a8  2**3
                  CONTENTS, ALLOC, LOAD, READONLY, DATA
  9 .rela.dyn     00000030  00000000004004d8  00000000004004d8  000004d8  2**3
                  CONTENTS, ALLOC, LOAD, READONLY, DATA
 10 .rela.plt     00000018  0000000000400508  0000000000400508  00000508  2**3
                  CONTENTS, ALLOC, LOAD, READONLY, DATA
 11 .init         0000001b  0000000000401000  0000000000401000  00001000  2**2
                  CONTENTS, ALLOC, LOAD, READONLY, CODE
 12 .plt          00000020  0000000000401020  0000000000401020  00001020  2**4
                  CONTENTS, ALLOC, LOAD, READONLY, CODE
 13 .plt.sec      00000010  0000000000401040  0000000000401040  00001040  2**4
                  CONTENTS, ALLOC, LOAD, READONLY, CODE
 14 .text         00000106  0000000000401050  0000000000401050  00001050  2**4
                  CONTENTS, ALLOC, LOAD, READONLY, CODE
 15 .fini         0000000d  0000000000401158  0000000000401158  00001158  2**2
                  CONTENTS, ALLOC, LOAD, READONLY, CODE
 16 .rodata       0000001c  0000000000402000  0000000000402000  00002000  2**3
                  CONTENTS, ALLOC, LOAD, READONLY, DATA
 17 .eh_frame_hdr 00000034  000000000040201c  000000000040201c  0000201c  2**2
                  CONTENTS, ALLOC, LOAD, READONLY, DATA
 18 .eh_frame     0000009c  0000000000402050  0000000000402050  00002050  2**3
                  CONTENTS, ALLOC, LOAD, READONLY, DATA
 19 .init_array   00000008  0000000000403de0  0000000000403de0  00002de0  2**3
                  CONTENTS, ALLOC, LOAD, DATA
 20 .fini_array   00000008  0000000000403de8  0000000000403de8  00002de8  2**3
                  CONTENTS, ALLOC, LOAD, DATA
 21 .dynamic      00000200  0000000000403df0  0000000000403df0  00002df0  2**3
                  CONTENTS, ALLOC, LOAD, DATA
 22 .got          00000010  0000000000403ff0  0000000000403ff0  00002ff0  2**3
                  CONTENTS, ALLOC, LOAD, DATA
 23 .got.plt      00000020  0000000000404000  0000000000404000  00003000  2**3
                  CONTENTS, ALLOC, LOAD, DATA
 24 .data         00000004  0000000000404020  0000000000404020  00003020  2**0
                  CONTENTS, ALLOC, LOAD, DATA
 25 .bss          00000004  0000000000404024  0000000000404024  00003024  2**0
                  ALLOC
 26 .comment      00000059  0000000000000000  0000000000000000  00003024  2**0
                  CONTENTS, READONLY
 27 .gnu.build.attributes 00001cd4  0000000000406028  0000000000406028  00003080  2**2
                  CONTENTS, READONLY, OCTETS
 28 .debug_aranges 00000030  0000000000000000  0000000000000000  00004d54  2**0
                  CONTENTS, READONLY, DEBUGGING, OCTETS
 29 .debug_info   00000bc2  0000000000000000  0000000000000000  00004d84  2**0
                  CONTENTS, READONLY, DEBUGGING, OCTETS
 30 .debug_abbrev 000002c1  0000000000000000  0000000000000000  00005946  2**0
                  CONTENTS, READONLY, DEBUGGING, OCTETS
 31 .debug_line   0000024b  0000000000000000  0000000000000000  00005c07  2**0
                  CONTENTS, READONLY, DEBUGGING, OCTETS
 32 .debug_str    000004cd  0000000000000000  0000000000000000  00005e52  2**0
                  CONTENTS, READONLY, DEBUGGING, OCTETS
 33 .debug_loc    000000a4  0000000000000000  0000000000000000  0000631f  2**0
                  CONTENTS, READONLY, DEBUGGING, OCTETS
 34 .debug_ranges 00000050  0000000000000000  0000000000000000  000063c3  2**0
                  CONTENTS, READONLY, DEBUGGING, OCTETS

Desmontagem da secção .init:

0000000000401000 <_init>:
  401000:	f3 0f 1e fa          	endbr64 
  401004:	48 83 ec 08          	sub    $0x8,%rsp
  401008:	48 8b 05 e9 2f 00 00 	mov    0x2fe9(%rip),%rax        # 403ff8 <__gmon_start__@Base>
  40100f:	48 85 c0             	test   %rax,%rax
  401012:	74 02                	je     401016 <_init+0x16>
  401014:	ff d0                	call   *%rax
  401016:	48 83 c4 08          	add    $0x8,%rsp
  40101a:	c3                   	ret    

Desmontagem da secção .plt:

0000000000401020 <.plt>:
  401020:	ff 35 e2 2f 00 00    	push   0x2fe2(%rip)        # 404008 <_GLOBAL_OFFSET_TABLE_+0x8>
  401026:	f2 ff 25 e3 2f 00 00 	bnd jmp *0x2fe3(%rip)        # 404010 <_GLOBAL_OFFSET_TABLE_+0x10>
  40102d:	0f 1f 00             	nopl   (%rax)
  401030:	f3 0f 1e fa          	endbr64 
  401034:	68 00 00 00 00       	push   $0x0
  401039:	f2 e9 e1 ff ff ff    	bnd jmp 401020 <_init+0x20>
  40103f:	90                   	nop

Desmontagem da secção .plt.sec:

0000000000401040 <puts@plt>:
  401040:	f3 0f 1e fa          	endbr64 
  401044:	f2 ff 25 cd 2f 00 00 	bnd jmp *0x2fcd(%rip)        # 404018 <puts@GLIBC_2.2.5>
  40104b:	0f 1f 44 00 00       	nopl   0x0(%rax,%rax,1)

Desmontagem da secção .text:

0000000000401050 <main>:
  401050:	f3 0f 1e fa          	endbr64 
  401054:	48 83 ec 08          	sub    $0x8,%rsp
  401058:	48 8d 3d b1 0f 00 00 	lea    0xfb1(%rip),%rdi        # 402010 <__dso_handle+0x8>
  40105f:	e8 dc ff ff ff       	call   401040 <puts@plt>
  401064:	31 c0                	xor    %eax,%eax
  401066:	48 83 c4 08          	add    $0x8,%rsp
  40106a:	c3                   	ret    

000000000040106b <.annobin_abi_note.c.hot>:
  40106b:	0f 1f 44 00 00       	nopl   0x0(%rax,%rax,1)

0000000000401070 <_start>:
  401070:	f3 0f 1e fa          	endbr64 
  401074:	31 ed                	xor    %ebp,%ebp
  401076:	49 89 d1             	mov    %rdx,%r9
  401079:	5e                   	pop    %rsi
  40107a:	48 89 e2             	mov    %rsp,%rdx
  40107d:	48 83 e4 f0          	and    $0xfffffffffffffff0,%rsp
  401081:	50                   	push   %rax
  401082:	54                   	push   %rsp
  401083:	45 31 c0             	xor    %r8d,%r8d
  401086:	31 c9                	xor    %ecx,%ecx
  401088:	48 c7 c7 50 10 40 00 	mov    $0x401050,%rdi
  40108f:	ff 15 5b 2f 00 00    	call   *0x2f5b(%rip)        # 403ff0 <__libc_start_main@GLIBC_2.34>
  401095:	f4                   	hlt    

0000000000401096 <.annobin_abi_note.c>:
  401096:	66 2e 0f 1f 84 00 00 	cs nopw 0x0(%rax,%rax,1)
  40109d:	00 00 00 

00000000004010a0 <_dl_relocate_static_pie>:
  4010a0:	f3 0f 1e fa          	endbr64 
  4010a4:	c3                   	ret    

00000000004010a5 <.annobin__dl_relocate_static_pie.end>:
  4010a5:	66 2e 0f 1f 84 00 00 	cs nopw 0x0(%rax,%rax,1)
  4010ac:	00 00 00 
  4010af:	90                   	nop

00000000004010b0 <deregister_tm_clones>:
  4010b0:	b8 28 40 40 00       	mov    $0x404028,%eax
  4010b5:	48 3d 28 40 40 00    	cmp    $0x404028,%rax
  4010bb:	74 13                	je     4010d0 <deregister_tm_clones+0x20>
  4010bd:	b8 00 00 00 00       	mov    $0x0,%eax
  4010c2:	48 85 c0             	test   %rax,%rax
  4010c5:	74 09                	je     4010d0 <deregister_tm_clones+0x20>
  4010c7:	bf 28 40 40 00       	mov    $0x404028,%edi
  4010cc:	ff e0                	jmp    *%rax
  4010ce:	66 90                	xchg   %ax,%ax
  4010d0:	c3                   	ret    
  4010d1:	66 66 2e 0f 1f 84 00 	data16 cs nopw 0x0(%rax,%rax,1)
  4010d8:	00 00 00 00 
  4010dc:	0f 1f 40 00          	nopl   0x0(%rax)

00000000004010e0 <register_tm_clones>:
  4010e0:	be 28 40 40 00       	mov    $0x404028,%esi
  4010e5:	48 81 ee 28 40 40 00 	sub    $0x404028,%rsi
  4010ec:	48 89 f0             	mov    %rsi,%rax
  4010ef:	48 c1 ee 3f          	shr    $0x3f,%rsi
  4010f3:	48 c1 f8 03          	sar    $0x3,%rax
  4010f7:	48 01 c6             	add    %rax,%rsi
  4010fa:	48 d1 fe             	sar    %rsi
  4010fd:	74 11                	je     401110 <register_tm_clones+0x30>
  4010ff:	b8 00 00 00 00       	mov    $0x0,%eax
  401104:	48 85 c0             	test   %rax,%rax
  401107:	74 07                	je     401110 <register_tm_clones+0x30>
  401109:	bf 28 40 40 00       	mov    $0x404028,%edi
  40110e:	ff e0                	jmp    *%rax
  401110:	c3                   	ret    
  401111:	66 66 2e 0f 1f 84 00 	data16 cs nopw 0x0(%rax,%rax,1)
  401118:	00 00 00 00 
  40111c:	0f 1f 40 00          	nopl   0x0(%rax)

0000000000401120 <__do_global_dtors_aux>:
  401120:	f3 0f 1e fa          	endbr64 
  401124:	80 3d f9 2e 00 00 00 	cmpb   $0x0,0x2ef9(%rip)        # 404024 <completed.0>
  40112b:	75 13                	jne    401140 <__do_global_dtors_aux+0x20>
  40112d:	55                   	push   %rbp
  40112e:	48 89 e5             	mov    %rsp,%rbp
  401131:	e8 7a ff ff ff       	call   4010b0 <deregister_tm_clones>
  401136:	c6 05 e7 2e 00 00 01 	movb   $0x1,0x2ee7(%rip)        # 404024 <completed.0>
  40113d:	5d                   	pop    %rbp
  40113e:	c3                   	ret    
  40113f:	90                   	nop
  401140:	c3                   	ret    
  401141:	66 66 2e 0f 1f 84 00 	data16 cs nopw 0x0(%rax,%rax,1)
  401148:	00 00 00 00 
  40114c:	0f 1f 40 00          	nopl   0x0(%rax)

0000000000401150 <frame_dummy>:
  401150:	f3 0f 1e fa          	endbr64 
  401154:	eb 8a                	jmp    4010e0 <register_tm_clones>

Desmontagem da secção .fini:

0000000000401158 <_fini>:
  401158:	f3 0f 1e fa          	endbr64 
  40115c:	48 83 ec 08          	sub    $0x8,%rsp
  401160:	48 83 c4 08          	add    $0x8,%rsp
  401164:	c3                   	ret    
